target datalayout = "e-m:e-p270:32:32-p271:32:32-p272:64:64-i64:64-i128:128-f80:128-n8:16:32:64-S128"
target triple = "x86_64-pc-linux-gnu"

@.str.3 = private unnamed_addr constant [2 x i8] c"\0A\00", align 1
@.str.4 = private unnamed_addr constant [48 x i8] c"    memory_bram -rules <rule_file> [selection]\0A\00", align 1
@.str.5 = private unnamed_addr constant [79 x i8] c"This pass converts the multi-port $mem memory cells into block ram instances.\0A\00", align 1
@.str.6 = private unnamed_addr constant [79 x i8] c"The given rules file describes the available resources and how they should be\0A\00", align 1
@.str.7 = private unnamed_addr constant [7 x i8] c"used.\0A\00", align 1
@.str.8 = private unnamed_addr constant [79 x i8] c"The rules file contains configuration options, a set of block ram description\0A\00", align 1
@.str.9 = private unnamed_addr constant [32 x i8] c"and a sequence of match rules.\0A\00", align 1
@.str.10 = private unnamed_addr constant [82 x i8] c"The option 'attr_icase' configures how attribute values are matched. The value 0\0A\00", align 1
@.str.11 = private unnamed_addr constant [49 x i8] c"means case-sensitive, 1 means case-insensitive.\0A\00", align 1
@.str.12 = private unnamed_addr constant [42 x i8] c"A block ram description looks like this:\0A\00", align 1
@.str.13 = private unnamed_addr constant [46 x i8] c"    bram RAMB1024X32     # name of BRAM cell\0A\00", align 1
@.str.14 = private unnamed_addr constant [66 x i8] c"      init 1             # set to '1' if BRAM can be initialized\0A\00", align 1
@.str.15 = private unnamed_addr constant [51 x i8] c"      abits 10           # number of address bits\0A\00", align 1
@.str.16 = private unnamed_addr constant [48 x i8] c"      dbits 32           # number of data bits\0A\00", align 1
@.str.17 = private unnamed_addr constant [50 x i8] c"      groups 2           # number of port groups\0A\00", align 1
@.str.18 = private unnamed_addr constant [58 x i8] c"      ports  1 1         # number of ports in each group\0A\00", align 1
@.str.19 = private unnamed_addr constant [69 x i8] c"      wrmode 1 0         # set to '1' if this groups is write ports\0A\00", align 1
@.str.20 = private unnamed_addr constant [50 x i8] c"      enable 4 1         # number of enable bits\0A\00", align 1
@.str.21 = private unnamed_addr constant [57 x i8] c"      transp 0 2         # transparent (for read ports)\0A\00", align 1
@.str.22 = private unnamed_addr constant [48 x i8] c"      clocks 1 2         # clock configuration\0A\00", align 1
@.str.23 = private unnamed_addr constant [57 x i8] c"      clkpol 2 2         # clock polarity configuration\0A\00", align 1
@.str.24 = private unnamed_addr constant [13 x i8] c"    endbram\0A\00", align 1
@.str.25 = private unnamed_addr constant [80 x i8] c"For the option 'transp' the value 0 means non-transparent, 1 means transparent\0A\00", align 1
@.str.26 = private unnamed_addr constant [73 x i8] c"and a value greater than 1 means configurable. All groups with the same\0A\00", align 1
@.str.27 = private unnamed_addr constant [56 x i8] c"value greater than 1 share the same configuration bit.\0A\00", align 1
@.str.28 = private unnamed_addr constant [76 x i8] c"For the option 'clocks' the value 0 means non-clocked, and a value greater\0A\00", align 1
@.str.29 = private unnamed_addr constant [75 x i8] c"than 0 means clocked. All groups with the same value share the same clock\0A\00", align 1
@.str.30 = private unnamed_addr constant [9 x i8] c"signal.\0A\00", align 1
@.str.31 = private unnamed_addr constant [80 x i8] c"For the option 'clkpol' the value 0 means negative edge, 1 means positive edge\0A\00", align 1
@.str.32 = private unnamed_addr constant [79 x i8] c"and a value greater than 1 means configurable. All groups with the same value\0A\00", align 1
@.str.33 = private unnamed_addr constant [50 x i8] c"greater than 1 share the same configuration bit.\0A\00", align 1
@.str.34 = private unnamed_addr constant [82 x i8] c"Using the same bram name in different bram blocks will create different variants\0A\00", align 1
@.str.35 = private unnamed_addr constant [75 x i8] c"of the bram. Verilog configuration parameters for the bram are created as\0A\00", align 1
@.str.36 = private unnamed_addr constant [9 x i8] c"needed.\0A\00", align 1
@.str.37 = private unnamed_addr constant [82 x i8] c"It is also possible to create variants by repeating statements in the bram block\0A\00", align 1
@.str.38 = private unnamed_addr constant [56 x i8] c"and appending '@<label>' to the individual statements.\0A\00", align 1
@.str.39 = private unnamed_addr constant [31 x i8] c"A match rule looks like this:\0A\00", align 1
@.str.40 = private unnamed_addr constant [23 x i8] c"    match RAMB1024X32\0A\00", align 1
@.str.41 = private unnamed_addr constant [77 x i8] c"      max waste 16384    # only use this bram if <= 16k ram bits are unused\0A\00", align 1
@.str.42 = private unnamed_addr constant [78 x i8] c"      min efficiency 80  # only use this bram if efficiency is at least 80%%\0A\00", align 1
@.str.43 = private unnamed_addr constant [14 x i8] c"    endmatch\0A\00", align 1
@.str.44 = private unnamed_addr constant [74 x i8] c"It is possible to match against the following values with min/max rules:\0A\00", align 1
@.str.45 = private unnamed_addr constant [58 x i8] c"    words  ........  number of words in memory in design\0A\00", align 1
@.str.46 = private unnamed_addr constant [65 x i8] c"    abits  ........  number of address bits on memory in design\0A\00", align 1
@.str.47 = private unnamed_addr constant [62 x i8] c"    dbits  ........  number of data bits on memory in design\0A\00", align 1
@.str.48 = private unnamed_addr constant [64 x i8] c"    wports  .......  number of write ports on memory in design\0A\00", align 1
@.str.49 = private unnamed_addr constant [63 x i8] c"    rports  .......  number of read ports on memory in design\0A\00", align 1
@.str.50 = private unnamed_addr constant [58 x i8] c"    ports  ........  number of ports on memory in design\0A\00", align 1
@.str.51 = private unnamed_addr constant [57 x i8] c"    bits  .........  number of bits in memory in design\0A\00", align 1
@.str.52 = private unnamed_addr constant [65 x i8] c"    dups ..........  number of duplications for more read ports\0A\00", align 1
@.str.53 = private unnamed_addr constant [68 x i8] c"    awaste  .......  number of unused address slots for this match\0A\00", align 1
@.str.54 = private unnamed_addr constant [64 x i8] c"    dwaste  .......  number of unused data bits for this match\0A\00", align 1
@.str.55 = private unnamed_addr constant [64 x i8] c"    bwaste  .......  number of unused bram bits for this match\0A\00", align 1
@.str.56 = private unnamed_addr constant [69 x i8] c"    waste  ........  total number of unused bram bits (bwaste*dups)\0A\00", align 1
@.str.57 = private unnamed_addr constant [71 x i8] c"    efficiency  ...  total percentage of used and non-duplicated bits\0A\00", align 1
@.str.58 = private unnamed_addr constant [61 x i8] c"    acells  .......  number of cells in 'address-direction'\0A\00", align 1
@.str.59 = private unnamed_addr constant [58 x i8] c"    dcells  .......  number of cells in 'data-direction'\0A\00", align 1
@.str.60 = private unnamed_addr constant [65 x i8] c"    cells  ........  total number of cells (acells*dcells*dups)\0A\00", align 1
@.str.61 = private unnamed_addr constant [72 x i8] c"A match containing the command 'attribute' followed by a list of space\0A\00", align 1
@.str.62 = private unnamed_addr constant [78 x i8] c"separated 'name[=string_value]' values requires that the memory contains any\0A\00", align 1
@.str.63 = private unnamed_addr constant [78 x i8] c"one of the given attribute name and string values (where specified), or name\0A\00", align 1
@.str.64 = private unnamed_addr constant [77 x i8] c"and integer 1 value (if no string_value given, since Verilog will interpret\0A\00", align 1
@.str.65 = private unnamed_addr constant [34 x i8] c"'(* attr *)' as '(* attr=1 *)').\0A\00", align 1
@.str.66 = private unnamed_addr constant [71 x i8] c"A name prefixed with '!' indicates that the attribute must not exist.\0A\00", align 1
@.str.67 = private unnamed_addr constant [71 x i8] c"The interface for the created bram instances is derived from the bram\0A\00", align 1
@.str.68 = private unnamed_addr constant [71 x i8] c"description. Use 'techmap' to convert the created bram instances into\0A\00", align 1
@.str.69 = private unnamed_addr constant [65 x i8] c"instances of the actual bram cells of your target architecture.\0A\00", align 1
@.str.70 = private unnamed_addr constant [71 x i8] c"A match containing the command 'or_next_if_better' is only used if it\0A\00", align 1
@.str.71 = private unnamed_addr constant [72 x i8] c"has a higher efficiency than the next match (and the one after that if\0A\00", align 1
@.str.72 = private unnamed_addr constant [59 x i8] c"the next also has 'or_next_if_better' set, and so forth).\0A\00", align 1
@.str.73 = private unnamed_addr constant [74 x i8] c"A match containing the command 'make_transp' will add external circuitry\0A\00", align 1
@.str.74 = private unnamed_addr constant [47 x i8] c"to simulate 'transparent read', if necessary.\0A\00", align 1
@.str.75 = private unnamed_addr constant [75 x i8] c"A match containing the command 'make_outreg' will add external flip-flops\0A\00", align 1
@.str.76 = private unnamed_addr constant [52 x i8] c"to implement synchronous read ports, if necessary.\0A\00", align 1
@.str.77 = private unnamed_addr constant [68 x i8] c"A match containing the command 'shuffle_enable A' will re-organize\0A\00", align 1
@.str.78 = private unnamed_addr constant [60 x i8] c"the data bits to accommodate the enable pattern of port A.\0A\00", align 1

; Function Attrs: mustprogress uwtable
define internal void @_ZN12_GLOBAL__N_114MemoryBramPass4helpEv(ptr noundef nonnull align 8 dereferenceable(104) %0) unnamed_addr #4 align 2 {
  %2 = alloca ptr, align 8
  store ptr %0, ptr %2, align 8
  call void (ptr, ...) @_ZN5Yosys3logEPKcz(ptr noundef @.str.3)
  call void (ptr, ...) @_ZN5Yosys3logEPKcz(ptr noundef @.str.4)
  call void (ptr, ...) @_ZN5Yosys3logEPKcz(ptr noundef @.str.3)
  call void (ptr, ...) @_ZN5Yosys3logEPKcz(ptr noundef @.str.5)
  call void (ptr, ...) @_ZN5Yosys3logEPKcz(ptr noundef @.str.6)
  call void (ptr, ...) @_ZN5Yosys3logEPKcz(ptr noundef @.str.7)
  call void (ptr, ...) @_ZN5Yosys3logEPKcz(ptr noundef @.str.3)
  call void (ptr, ...) @_ZN5Yosys3logEPKcz(ptr noundef @.str.8)
  call void (ptr, ...) @_ZN5Yosys3logEPKcz(ptr noundef @.str.9)
  call void (ptr, ...) @_ZN5Yosys3logEPKcz(ptr noundef @.str.3)
  call void (ptr, ...) @_ZN5Yosys3logEPKcz(ptr noundef @.str.10)
  call void (ptr, ...) @_ZN5Yosys3logEPKcz(ptr noundef @.str.11)
  call void (ptr, ...) @_ZN5Yosys3logEPKcz(ptr noundef @.str.3)
  call void (ptr, ...) @_ZN5Yosys3logEPKcz(ptr noundef @.str.12)
  call void (ptr, ...) @_ZN5Yosys3logEPKcz(ptr noundef @.str.3)
  call void (ptr, ...) @_ZN5Yosys3logEPKcz(ptr noundef @.str.13)
  call void (ptr, ...) @_ZN5Yosys3logEPKcz(ptr noundef @.str.14)
  call void (ptr, ...) @_ZN5Yosys3logEPKcz(ptr noundef @.str.15)
  call void (ptr, ...) @_ZN5Yosys3logEPKcz(ptr noundef @.str.16)
  call void (ptr, ...) @_ZN5Yosys3logEPKcz(ptr noundef @.str.17)
  call void (ptr, ...) @_ZN5Yosys3logEPKcz(ptr noundef @.str.18)
  call void (ptr, ...) @_ZN5Yosys3logEPKcz(ptr noundef @.str.19)
  call void (ptr, ...) @_ZN5Yosys3logEPKcz(ptr noundef @.str.20)
  call void (ptr, ...) @_ZN5Yosys3logEPKcz(ptr noundef @.str.21)
  call void (ptr, ...) @_ZN5Yosys3logEPKcz(ptr noundef @.str.22)
  call void (ptr, ...) @_ZN5Yosys3logEPKcz(ptr noundef @.str.23)
  call void (ptr, ...) @_ZN5Yosys3logEPKcz(ptr noundef @.str.24)
  call void (ptr, ...) @_ZN5Yosys3logEPKcz(ptr noundef @.str.3)
  call void (ptr, ...) @_ZN5Yosys3logEPKcz(ptr noundef @.str.25)
  call void (ptr, ...) @_ZN5Yosys3logEPKcz(ptr noundef @.str.26)
  call void (ptr, ...) @_ZN5Yosys3logEPKcz(ptr noundef @.str.27)
  call void (ptr, ...) @_ZN5Yosys3logEPKcz(ptr noundef @.str.3)
  call void (ptr, ...) @_ZN5Yosys3logEPKcz(ptr noundef @.str.28)
  call void (ptr, ...) @_ZN5Yosys3logEPKcz(ptr noundef @.str.29)
  call void (ptr, ...) @_ZN5Yosys3logEPKcz(ptr noundef @.str.30)
  call void (ptr, ...) @_ZN5Yosys3logEPKcz(ptr noundef @.str.3)
  call void (ptr, ...) @_ZN5Yosys3logEPKcz(ptr noundef @.str.31)
  call void (ptr, ...) @_ZN5Yosys3logEPKcz(ptr noundef @.str.32)
  call void (ptr, ...) @_ZN5Yosys3logEPKcz(ptr noundef @.str.33)
  call void (ptr, ...) @_ZN5Yosys3logEPKcz(ptr noundef @.str.3)
  call void (ptr, ...) @_ZN5Yosys3logEPKcz(ptr noundef @.str.34)
  call void (ptr, ...) @_ZN5Yosys3logEPKcz(ptr noundef @.str.35)
  call void (ptr, ...) @_ZN5Yosys3logEPKcz(ptr noundef @.str.36)
  call void (ptr, ...) @_ZN5Yosys3logEPKcz(ptr noundef @.str.3)
  call void (ptr, ...) @_ZN5Yosys3logEPKcz(ptr noundef @.str.37)
  call void (ptr, ...) @_ZN5Yosys3logEPKcz(ptr noundef @.str.38)
  call void (ptr, ...) @_ZN5Yosys3logEPKcz(ptr noundef @.str.3)
  call void (ptr, ...) @_ZN5Yosys3logEPKcz(ptr noundef @.str.39)
  call void (ptr, ...) @_ZN5Yosys3logEPKcz(ptr noundef @.str.3)
  call void (ptr, ...) @_ZN5Yosys3logEPKcz(ptr noundef @.str.40)
  call void (ptr, ...) @_ZN5Yosys3logEPKcz(ptr noundef @.str.41)
  call void (ptr, ...) @_ZN5Yosys3logEPKcz(ptr noundef @.str.42)
  call void (ptr, ...) @_ZN5Yosys3logEPKcz(ptr noundef @.str.43)
  call void (ptr, ...) @_ZN5Yosys3logEPKcz(ptr noundef @.str.3)
  call void (ptr, ...) @_ZN5Yosys3logEPKcz(ptr noundef @.str.44)
  call void (ptr, ...) @_ZN5Yosys3logEPKcz(ptr noundef @.str.3)
  call void (ptr, ...) @_ZN5Yosys3logEPKcz(ptr noundef @.str.45)
  call void (ptr, ...) @_ZN5Yosys3logEPKcz(ptr noundef @.str.46)
  call void (ptr, ...) @_ZN5Yosys3logEPKcz(ptr noundef @.str.47)
  call void (ptr, ...) @_ZN5Yosys3logEPKcz(ptr noundef @.str.48)
  call void (ptr, ...) @_ZN5Yosys3logEPKcz(ptr noundef @.str.49)
  call void (ptr, ...) @_ZN5Yosys3logEPKcz(ptr noundef @.str.50)
  call void (ptr, ...) @_ZN5Yosys3logEPKcz(ptr noundef @.str.51)
  call void (ptr, ...) @_ZN5Yosys3logEPKcz(ptr noundef @.str.52)
  call void (ptr, ...) @_ZN5Yosys3logEPKcz(ptr noundef @.str.3)
  call void (ptr, ...) @_ZN5Yosys3logEPKcz(ptr noundef @.str.53)
  call void (ptr, ...) @_ZN5Yosys3logEPKcz(ptr noundef @.str.54)
  call void (ptr, ...) @_ZN5Yosys3logEPKcz(ptr noundef @.str.55)
  call void (ptr, ...) @_ZN5Yosys3logEPKcz(ptr noundef @.str.56)
  call void (ptr, ...) @_ZN5Yosys3logEPKcz(ptr noundef @.str.57)
  call void (ptr, ...) @_ZN5Yosys3logEPKcz(ptr noundef @.str.3)
  call void (ptr, ...) @_ZN5Yosys3logEPKcz(ptr noundef @.str.58)
  call void (ptr, ...) @_ZN5Yosys3logEPKcz(ptr noundef @.str.59)
  call void (ptr, ...) @_ZN5Yosys3logEPKcz(ptr noundef @.str.60)
  call void (ptr, ...) @_ZN5Yosys3logEPKcz(ptr noundef @.str.3)
  call void (ptr, ...) @_ZN5Yosys3logEPKcz(ptr noundef @.str.61)
  call void (ptr, ...) @_ZN5Yosys3logEPKcz(ptr noundef @.str.62)
  call void (ptr, ...) @_ZN5Yosys3logEPKcz(ptr noundef @.str.63)
  call void (ptr, ...) @_ZN5Yosys3logEPKcz(ptr noundef @.str.64)
  call void (ptr, ...) @_ZN5Yosys3logEPKcz(ptr noundef @.str.65)
  call void (ptr, ...) @_ZN5Yosys3logEPKcz(ptr noundef @.str.66)
  call void (ptr, ...) @_ZN5Yosys3logEPKcz(ptr noundef @.str.3)
  call void (ptr, ...) @_ZN5Yosys3logEPKcz(ptr noundef @.str.67)
  call void (ptr, ...) @_ZN5Yosys3logEPKcz(ptr noundef @.str.68)
  call void (ptr, ...) @_ZN5Yosys3logEPKcz(ptr noundef @.str.69)
  call void (ptr, ...) @_ZN5Yosys3logEPKcz(ptr noundef @.str.3)
  call void (ptr, ...) @_ZN5Yosys3logEPKcz(ptr noundef @.str.70)
  call void (ptr, ...) @_ZN5Yosys3logEPKcz(ptr noundef @.str.71)
  call void (ptr, ...) @_ZN5Yosys3logEPKcz(ptr noundef @.str.72)
  call void (ptr, ...) @_ZN5Yosys3logEPKcz(ptr noundef @.str.3)
  call void (ptr, ...) @_ZN5Yosys3logEPKcz(ptr noundef @.str.73)
  call void (ptr, ...) @_ZN5Yosys3logEPKcz(ptr noundef @.str.74)
  call void (ptr, ...) @_ZN5Yosys3logEPKcz(ptr noundef @.str.3)
  call void (ptr, ...) @_ZN5Yosys3logEPKcz(ptr noundef @.str.75)
  call void (ptr, ...) @_ZN5Yosys3logEPKcz(ptr noundef @.str.76)
  call void (ptr, ...) @_ZN5Yosys3logEPKcz(ptr noundef @.str.3)
  call void (ptr, ...) @_ZN5Yosys3logEPKcz(ptr noundef @.str.77)
  call void (ptr, ...) @_ZN5Yosys3logEPKcz(ptr noundef @.str.78)
  call void (ptr, ...) @_ZN5Yosys3logEPKcz(ptr noundef @.str.3)
  ret void
}